; Function Attrs: mustprogress nounwind uwtable
define hidden void @_ZN6google8protobuf7strings20GrowingArrayByteSinkD0Ev(ptr noundef nonnull align 8 dereferenceable(32) initializes((0, 8)) %0) unnamed_addr #10 align 2 {
  store ptr getelementptr inbounds nuw inrange(-16, 32) (i8, ptr @_ZTVN6google8protobuf7strings20GrowingArrayByteSinkE, i64 16), ptr %0, align 8, !tbaa !3
  %2 = getelementptr inbounds nuw i8, ptr %0, i64 16
  %3 = load ptr, ptr %2, align 8, !tbaa !21
  %4 = icmp eq ptr %3, null
  br i1 %4, label %_ZN6google8protobuf7strings20GrowingArrayByteSinkD2Ev.exit, label %5

5:                                                ; preds = %1
  tail call void @_ZdaPv(ptr noundef nonnull %3) #22
  br label %_ZN6google8protobuf7strings20GrowingArrayByteSinkD2Ev.exit

_ZN6google8protobuf7strings20GrowingArrayByteSinkD2Ev.exit: ; preds = %1, %5
  tail call void @_ZdlPv(ptr noundef nonnull %0) #22
  ret void
}